target datalayout = "e-m:e-p270:32:32-p271:32:32-p272:64:64-i64:64-i128:128-f80:128-n8:16:32:64-S128"
target triple = "x86_64-unknown-linux-gnu"

%struct.SCSISense = type { i8, i8, i8 }
%struct.VirtIOSCSICommon = type { %struct.VirtIODevice, %struct.VirtIOSCSIConf, i32, i32, ptr, ptr, ptr }
%struct.VirtIODevice = type { %struct.DeviceState, ptr, i8, i8, i16, i64, i64, i64, i64, ptr, i16, i32, i32, ptr, %struct.MemoryListener, i16, i8, i8, i8, i8, i8, i8, i8, i8, i8, ptr, ptr, i8, i8, ptr, ptr, %union.anon.1, %struct.EventNotifier, i8 }
%struct.DeviceState = type { %struct.Object, ptr, ptr, i8, i8, i64, ptr, i32, i8, ptr, %struct.NamedGPIOListHead, %struct.NamedClockListHead, %struct.BusStateHead, i32, i32, i32, %struct.ResettableState, ptr, %struct.MemReentrancyGuard }
%struct.Object = type { ptr, ptr, ptr, i32, ptr }
%struct.NamedGPIOListHead = type { ptr }
%struct.NamedClockListHead = type { ptr }
%struct.BusStateHead = type { ptr }
%struct.ResettableState = type { i32, i8, i8 }
%struct.MemReentrancyGuard = type { i8 }
%struct.MemoryListener = type { ptr, ptr, ptr, ptr, ptr, ptr, ptr, ptr, ptr, ptr, ptr, ptr, ptr, ptr, ptr, ptr, ptr, i32, ptr, ptr, %union.anon, %union.anon.0 }
%union.anon = type { %struct.QTailQLink }
%struct.QTailQLink = type { ptr, ptr }
%union.anon.0 = type { %struct.QTailQLink }
%union.anon.1 = type { %struct.QTailQLink }
%struct.EventNotifier = type { i32, i32, i8 }
%struct.VirtIOSCSIConf = type { i32, i32, i8, i32, i32, ptr, ptr, %struct.CharBackend, i32, ptr }
%struct.CharBackend = type { ptr, ptr, ptr, ptr, ptr, ptr, i32, i32 }
%struct.VirtIOSCSI = type { %struct.VirtIOSCSICommon, %struct.SCSIBus, i32, i8, ptr, %union.anon.3, ptr, i8, i8, i8, i8, i32 }
%struct.SCSIBus = type { %struct.BusState, i32, %struct.SCSISense, ptr, i32 }
%struct.BusState = type { %struct.Object, ptr, ptr, ptr, i32, i8, i8, i32, %union.BusChildHead, %struct.BusStateEntry, %struct.ResettableState }
%union.BusChildHead = type { %struct.QTailQLink }
%struct.BusStateEntry = type { ptr, ptr }
%union.anon.3 = type { %struct.QTailQLink }

@.str.3 = private unnamed_addr constant [14 x i8] c"virtio-device\00", align 1
@.str.4 = private unnamed_addr constant [105 x i8] c"/home/dtcxzyw/WorkSpace/Projects/compilers/llvm-opt-benchmark/bench/qemu/qemu/include/hw/virtio/virtio.h\00", align 1
@__func__.VIRTIO_DEVICE = private unnamed_addr constant [14 x i8] c"VIRTIO_DEVICE\00", align 1
@.str.6 = private unnamed_addr constant [110 x i8] c"/home/dtcxzyw/WorkSpace/Projects/compilers/llvm-opt-benchmark/bench/qemu/qemu/include/hw/virtio/virtio-scsi.h\00", align 1
@.str.8 = private unnamed_addr constant [101 x i8] c"/home/dtcxzyw/WorkSpace/Projects/compilers/llvm-opt-benchmark/bench/qemu/qemu/include/hw/qdev-core.h\00", align 1
@.str.9 = private unnamed_addr constant [19 x i8] c"virtio-scsi-device\00", align 1
@__func__.VIRTIO_SCSI = private unnamed_addr constant [12 x i8] c"VIRTIO_SCSI\00", align 1
@.str.52 = private unnamed_addr constant [4 x i8] c"bus\00", align 1
@__func__.BUS = private unnamed_addr constant [4 x i8] c"BUS\00", align 1

; Function Attrs: nounwind sspstrong uwtable
define internal ptr @BUS(ptr noundef %obj) #0 {
entry:
  %obj.addr = alloca ptr, align 8
  store ptr %obj, ptr %obj.addr, align 8
  %0 = load ptr, ptr %obj.addr, align 8
  %call = call ptr @object_dynamic_cast_assert(ptr noundef %0, ptr noundef @.str.52, ptr noundef @.str.8, i32 noundef 316, ptr noundef @__func__.BUS)
  ret ptr %call
}

; Function Attrs: nounwind sspstrong uwtable
define internal ptr @VIRTIO_SCSI(ptr noundef %obj) #0 {
entry:
  %obj.addr = alloca ptr, align 8
  store ptr %obj, ptr %obj.addr, align 8
  %0 = load ptr, ptr %obj.addr, align 8
  %call = call ptr @object_dynamic_cast_assert(ptr noundef %0, ptr noundef @.str.9, ptr noundef @.str.6, i32 noundef 31, ptr noundef @__func__.VIRTIO_SCSI)
  ret ptr %call
}

; Function Attrs: nounwind sspstrong uwtable
define internal ptr @VIRTIO_DEVICE(ptr noundef %obj) #0 {
entry:
  %obj.addr = alloca ptr, align 8
  store ptr %obj, ptr %obj.addr, align 8
  %0 = load ptr, ptr %obj.addr, align 8
  %call = call ptr @object_dynamic_cast_assert(ptr noundef %0, ptr noundef @.str.3, ptr noundef @.str.4, i32 noundef 85, ptr noundef @__func__.VIRTIO_DEVICE)
  ret ptr %call
}

; Function Attrs: nounwind sspstrong uwtable
define internal void @virtio_scsi_device_realize(ptr noundef %dev, ptr noundef %errp) #0 {
entry:
  %dev.addr = alloca ptr, align 8
  %errp.addr = alloca ptr, align 8
  %vdev = alloca ptr, align 8
  %s = alloca ptr, align 8
  %err = alloca ptr, align 8
  store ptr %dev, ptr %dev.addr, align 8
  store ptr %errp, ptr %errp.addr, align 8
  %0 = load ptr, ptr %dev.addr, align 8
  %call = call ptr @VIRTIO_DEVICE(ptr noundef %0)
  store ptr %call, ptr %vdev, align 8
  %1 = load ptr, ptr %dev.addr, align 8
  %call1 = call ptr @VIRTIO_SCSI(ptr noundef %1)
  store ptr %call1, ptr %s, align 8
  store ptr null, ptr %err, align 8
  br label %do.body

do.body:                                          ; preds = %entry
  %2 = load ptr, ptr %s, align 8
  %tmf_bh_list = getelementptr inbounds %struct.VirtIOSCSI, ptr %2, i32 0, i32 5
  store ptr null, ptr %tmf_bh_list, align 8
  %3 = load ptr, ptr %s, align 8
  %tmf_bh_list2 = getelementptr inbounds %struct.VirtIOSCSI, ptr %3, i32 0, i32 5
  %4 = load ptr, ptr %s, align 8
  %tmf_bh_list3 = getelementptr inbounds %struct.VirtIOSCSI, ptr %4, i32 0, i32 5
  %tql_prev = getelementptr inbounds %struct.QTailQLink, ptr %tmf_bh_list3, i32 0, i32 1
  store ptr %tmf_bh_list2, ptr %tql_prev, align 8
  br label %do.end

do.end:                                           ; preds = %do.body
  %5 = load ptr, ptr %dev.addr, align 8
  call void @virtio_scsi_common_realize(ptr noundef %5, ptr noundef @virtio_scsi_handle_ctrl, ptr noundef @virtio_scsi_handle_event, ptr noundef @virtio_scsi_handle_cmd, ptr noundef %err)
  %6 = load ptr, ptr %err, align 8
  %cmp = icmp ne ptr %6, null
  br i1 %cmp, label %if.then, label %if.end

if.then:                                          ; preds = %do.end
  %7 = load ptr, ptr %errp.addr, align 8
  %8 = load ptr, ptr %err, align 8
  call void @error_propagate(ptr noundef %7, ptr noundef %8)
  br label %return

if.end:                                           ; preds = %do.end
  %9 = load ptr, ptr %s, align 8
  %bus = getelementptr inbounds %struct.VirtIOSCSI, ptr %9, i32 0, i32 1
  %10 = load ptr, ptr %dev.addr, align 8
  %11 = load ptr, ptr %vdev, align 8
  %bus_name = getelementptr inbounds %struct.VirtIODevice, ptr %11, i32 0, i32 26
  %12 = load ptr, ptr %bus_name, align 8
  call void @scsi_bus_init_named(ptr noundef %bus, i64 noundef 144, ptr noundef %10, ptr noundef @virtio_scsi_scsi_info, ptr noundef %12)
  %13 = load ptr, ptr %s, align 8
  %bus4 = getelementptr inbounds %struct.VirtIOSCSI, ptr %13, i32 0, i32 1
  %call5 = call ptr @BUS(ptr noundef %bus4)
  %14 = load ptr, ptr %dev.addr, align 8
  call void @qbus_set_hotplug_handler(ptr noundef %call5, ptr noundef %14)
  %15 = load ptr, ptr %s, align 8
  %16 = load ptr, ptr %errp.addr, align 8
  call void @virtio_scsi_dataplane_setup(ptr noundef %15, ptr noundef %16)
  br label %return

return:                                           ; preds = %if.end, %if.then
  ret void
}