; Function Attrs: nounwind sspstrong uwtable
define internal void @virtio_scsi_device_realize(ptr noundef %dev, ptr noundef %errp) #0 {
entry:
  %err = alloca ptr, align 8
  %call.i = tail call ptr @object_dynamic_cast_assert(ptr noundef %dev, ptr noundef nonnull @.str.3, ptr noundef nonnull @.str.4, i32 noundef 85, ptr noundef nonnull @__func__.VIRTIO_DEVICE) #13
  %call.i11 = tail call ptr @object_dynamic_cast_assert(ptr noundef %dev, ptr noundef nonnull @.str.9, ptr noundef nonnull @.str.6, i32 noundef 31, ptr noundef nonnull @__func__.VIRTIO_SCSI) #13
  store ptr null, ptr %err, align 8
  %tmf_bh_list = getelementptr inbounds nuw i8, ptr %call.i11, i64 824
  store ptr null, ptr %tmf_bh_list, align 8
  %tql_prev = getelementptr inbounds nuw i8, ptr %call.i11, i64 832
  store ptr %tmf_bh_list, ptr %tql_prev, align 8
  call void @virtio_scsi_common_realize(ptr noundef %dev, ptr noundef nonnull @virtio_scsi_handle_ctrl, ptr noundef nonnull @virtio_scsi_handle_event, ptr noundef nonnull @virtio_scsi_handle_cmd, ptr noundef nonnull %err)
  %0 = load ptr, ptr %err, align 8
  %cmp.not = icmp eq ptr %0, null
  br i1 %cmp.not, label %if.end, label %if.then

if.then:                                          ; preds = %entry
  call void @error_propagate(ptr noundef %errp, ptr noundef nonnull %0) #13
  br label %return

if.end:                                           ; preds = %entry
  %bus = getelementptr inbounds nuw i8, ptr %call.i11, i64 664
  %bus_name = getelementptr inbounds nuw i8, ptr %call.i, i64 456
  %1 = load ptr, ptr %bus_name, align 8
  call void @scsi_bus_init_named(ptr noundef nonnull %bus, i64 noundef 144, ptr noundef %dev, ptr noundef nonnull @virtio_scsi_scsi_info, ptr noundef %1) #13
  %call.i12 = call ptr @object_dynamic_cast_assert(ptr noundef nonnull %bus, ptr noundef nonnull @.str.52, ptr noundef nonnull @.str.8, i32 noundef 316, ptr noundef nonnull @__func__.BUS) #13
  call void @qbus_set_hotplug_handler(ptr noundef %call.i12, ptr noundef %dev) #13
  call void @virtio_scsi_dataplane_setup(ptr noundef nonnull %call.i11, ptr noundef %errp) #13
  br label %return

return:                                           ; preds = %if.end, %if.then
  ret void
}